target datalayout = "e-m:e-p270:32:32-p271:32:32-p272:64:64-i64:64-i128:128-f80:128-n8:16:32:64-S128"
target triple = "x86_64-pc-linux-gnu"

%"class.std::vector.17" = type { %"struct.std::_Vector_base.18" }
%"struct.std::_Vector_base.18" = type { %"struct.std::_Vector_base<float, std::allocator<float>>::_Vector_impl" }
%"struct.std::_Vector_base<float, std::allocator<float>>::_Vector_impl" = type { %"struct.std::_Vector_base<float, std::allocator<float>>::_Vector_impl_data" }
%"struct.std::_Vector_base<float, std::allocator<float>>::_Vector_impl_data" = type { ptr, ptr, ptr }
%"class.faiss::(anonymous namespace)::CostCalculator" = type { %"class.std::vector.23", %"class.std::vector.23" }
%"class.std::vector.23" = type { %"struct.std::_Vector_base.24" }
%"struct.std::_Vector_base.24" = type { %"struct.std::_Vector_base<double, std::allocator<double>>::_Vector_impl" }
%"struct.std::_Vector_base<double, std::allocator<double>>::_Vector_impl" = type { %"struct.std::_Vector_base<double, std::allocator<double>>::_Vector_impl_data" }
%"struct.std::_Vector_base<double, std::allocator<double>>::_Vector_impl_data" = type { ptr, ptr, ptr }
%"class.faiss::(anonymous namespace)::Matrix" = type { %"class.std::vector.17", i64, i64 }
%class.anon.29 = type { ptr, ptr, ptr }

; Function Attrs: mustprogress nounwind uwtable
define linkonce_odr noundef nonnull align 4 dereferenceable(4) ptr @_ZNSt6vectorIfSaIfEEixEm(ptr noundef nonnull align 8 dereferenceable(24) %0, i64 noundef %1) #1 comdat align 2 {
  %3 = alloca ptr, align 8
  %4 = alloca i64, align 8
  store ptr %0, ptr %3, align 8
  store i64 %1, ptr %4, align 8
  %5 = load ptr, ptr %3, align 8
  %6 = getelementptr inbounds %"struct.std::_Vector_base.18", ptr %5, i32 0, i32 0
  %7 = getelementptr inbounds %"struct.std::_Vector_base<float, std::allocator<float>>::_Vector_impl_data", ptr %6, i32 0, i32 0
  %8 = load ptr, ptr %7, align 8
  %9 = load i64, ptr %4, align 8
  %10 = getelementptr inbounds float, ptr %8, i64 %9
  ret ptr %10
}

; Function Attrs: mustprogress nounwind uwtable
define linkonce_odr noundef nonnull align 8 dereferenceable(8) ptr @_ZNSt6vectorIdSaIdEEixEm(ptr noundef nonnull align 8 dereferenceable(24) %0, i64 noundef %1) #1 comdat align 2 {
  %3 = alloca ptr, align 8
  %4 = alloca i64, align 8
  store ptr %0, ptr %3, align 8
  store i64 %1, ptr %4, align 8
  %5 = load ptr, ptr %3, align 8
  %6 = getelementptr inbounds %"struct.std::_Vector_base.24", ptr %5, i32 0, i32 0
  %7 = getelementptr inbounds %"struct.std::_Vector_base<double, std::allocator<double>>::_Vector_impl_data", ptr %6, i32 0, i32 0
  %8 = load ptr, ptr %7, align 8
  %9 = load i64, ptr %4, align 8
  %10 = getelementptr inbounds double, ptr %8, i64 %9
  ret ptr %10
}

; Function Attrs: mustprogress nounwind uwtable
define internal noundef nonnull align 4 dereferenceable(4) ptr @_ZN5faiss12_GLOBAL__N_16MatrixIfE2atEll(ptr noundef nonnull align 8 dereferenceable(40) %0, i64 noundef %1, i64 noundef %2) #1 align 2 {
  %4 = alloca ptr, align 8
  %5 = alloca i64, align 8
  %6 = alloca i64, align 8
  store ptr %0, ptr %4, align 8
  store i64 %1, ptr %5, align 8
  store i64 %2, ptr %6, align 8
  %7 = load ptr, ptr %4, align 8
  %8 = getelementptr inbounds %"class.faiss::(anonymous namespace)::Matrix", ptr %7, i32 0, i32 0
  %9 = load i64, ptr %5, align 8
  %10 = getelementptr inbounds %"class.faiss::(anonymous namespace)::Matrix", ptr %7, i32 0, i32 2
  %11 = load i64, ptr %10, align 8
  %12 = mul nsw i64 %9, %11
  %13 = load i64, ptr %6, align 8
  %14 = add nsw i64 %12, %13
  %15 = call noundef nonnull align 4 dereferenceable(4) ptr @_ZNSt6vectorIfSaIfEEixEm(ptr noundef nonnull align 8 dereferenceable(24) %8, i64 noundef %14) #12
  ret ptr %15
}

; Function Attrs: mustprogress nounwind uwtable
define linkonce_odr noundef nonnull align 8 dereferenceable(8) ptr @_ZSt3minIlERKT_S2_S2_(ptr noundef nonnull align 8 dereferenceable(8) %0, ptr noundef nonnull align 8 dereferenceable(8) %1) #1 comdat {
  %3 = alloca ptr, align 8
  %4 = alloca ptr, align 8
  %5 = alloca ptr, align 8
  store ptr %0, ptr %4, align 8
  store ptr %1, ptr %5, align 8
  %6 = load ptr, ptr %5, align 8
  %7 = load i64, ptr %6, align 8
  %8 = load ptr, ptr %4, align 8
  %9 = load i64, ptr %8, align 8
  %10 = icmp slt i64 %7, %9
  br i1 %10, label %11, label %13

11:                                               ; preds = %2
  %12 = load ptr, ptr %5, align 8
  store ptr %12, ptr %3, align 8
  br label %15

13:                                               ; preds = %2
  %14 = load ptr, ptr %4, align 8
  store ptr %14, ptr %3, align 8
  br label %15

15:                                               ; preds = %13, %11
  %16 = load ptr, ptr %3, align 8
  ret ptr %16
}

; Function Attrs: mustprogress nounwind uwtable
define internal noundef float @_ZN5faiss12_GLOBAL__N_114CostCalculatorclEll(ptr noundef nonnull align 8 dereferenceable(48) %0, i64 noundef %1, i64 noundef %2) #1 align 2 {
  %4 = alloca float, align 4
  %5 = alloca ptr, align 8
  %6 = alloca i64, align 8
  %7 = alloca i64, align 8
  %8 = alloca double, align 8
  %9 = alloca double, align 8
  store ptr %0, ptr %5, align 8
  store i64 %1, ptr %6, align 8
  store i64 %2, ptr %7, align 8
  %10 = load ptr, ptr %5, align 8
  %11 = load i64, ptr %7, align 8
  %12 = load i64, ptr %6, align 8
  %13 = icmp slt i64 %11, %12
  br i1 %13, label %14, label %15

14:                                               ; preds = %3
  store float 0.000000e+00, ptr %4, align 4
  br label %69

15:                                               ; preds = %3
  %16 = getelementptr inbounds %"class.faiss::(anonymous namespace)::CostCalculator", ptr %10, i32 0, i32 0
  %17 = load i64, ptr %7, align 8
  %18 = add nsw i64 %17, 1
  %19 = call noundef nonnull align 8 dereferenceable(8) ptr @_ZNSt6vectorIdSaIdEEixEm(ptr noundef nonnull align 8 dereferenceable(24) %16, i64 noundef %18) #12
  %20 = load double, ptr %19, align 8
  %21 = getelementptr inbounds %"class.faiss::(anonymous namespace)::CostCalculator", ptr %10, i32 0, i32 0
  %22 = load i64, ptr %6, align 8
  %23 = call noundef nonnull align 8 dereferenceable(8) ptr @_ZNSt6vectorIdSaIdEEixEm(ptr noundef nonnull align 8 dereferenceable(24) %21, i64 noundef %22) #12
  %24 = load double, ptr %23, align 8
  %25 = fsub double %20, %24
  %26 = load i64, ptr %7, align 8
  %27 = load i64, ptr %6, align 8
  %28 = sub nsw i64 %26, %27
  %29 = add nsw i64 %28, 1
  %30 = sitofp i64 %29 to double
  %31 = fdiv double %25, %30
  store double %31, ptr %8, align 8
  %32 = getelementptr inbounds %"class.faiss::(anonymous namespace)::CostCalculator", ptr %10, i32 0, i32 1
  %33 = load i64, ptr %7, align 8
  %34 = add nsw i64 %33, 1
  %35 = call noundef nonnull align 8 dereferenceable(8) ptr @_ZNSt6vectorIdSaIdEEixEm(ptr noundef nonnull align 8 dereferenceable(24) %32, i64 noundef %34) #12
  %36 = load double, ptr %35, align 8
  %37 = getelementptr inbounds %"class.faiss::(anonymous namespace)::CostCalculator", ptr %10, i32 0, i32 1
  %38 = load i64, ptr %6, align 8
  %39 = call noundef nonnull align 8 dereferenceable(8) ptr @_ZNSt6vectorIdSaIdEEixEm(ptr noundef nonnull align 8 dereferenceable(24) %37, i64 noundef %38) #12
  %40 = load double, ptr %39, align 8
  %41 = fsub double %36, %40
  store double %41, ptr %9, align 8
  %42 = load i64, ptr %7, align 8
  %43 = load i64, ptr %6, align 8
  %44 = sub nsw i64 %42, %43
  %45 = add nsw i64 %44, 1
  %46 = sitofp i64 %45 to double
  %47 = load double, ptr %8, align 8
  %48 = load double, ptr %8, align 8
  %49 = fmul double %47, %48
  %50 = load double, ptr %9, align 8
  %51 = call double @llvm.fmuladd.f64(double %46, double %49, double %50)
  store double %51, ptr %9, align 8
  %52 = load double, ptr %8, align 8
  %53 = fmul double 2.000000e+00, %52
  %54 = getelementptr inbounds %"class.faiss::(anonymous namespace)::CostCalculator", ptr %10, i32 0, i32 0
  %55 = load i64, ptr %7, align 8
  %56 = add nsw i64 %55, 1
  %57 = call noundef nonnull align 8 dereferenceable(8) ptr @_ZNSt6vectorIdSaIdEEixEm(ptr noundef nonnull align 8 dereferenceable(24) %54, i64 noundef %56) #12
  %58 = load double, ptr %57, align 8
  %59 = getelementptr inbounds %"class.faiss::(anonymous namespace)::CostCalculator", ptr %10, i32 0, i32 0
  %60 = load i64, ptr %6, align 8
  %61 = call noundef nonnull align 8 dereferenceable(8) ptr @_ZNSt6vectorIdSaIdEEixEm(ptr noundef nonnull align 8 dereferenceable(24) %59, i64 noundef %60) #12
  %62 = load double, ptr %61, align 8
  %63 = fsub double %58, %62
  %64 = load double, ptr %9, align 8
  %65 = fneg double %53
  %66 = call double @llvm.fmuladd.f64(double %65, double %63, double %64)
  store double %66, ptr %9, align 8
  %67 = load double, ptr %9, align 8
  %68 = fptrunc double %67 to float
  store float %68, ptr %4, align 4
  br label %69

69:                                               ; preds = %15, %14
  %70 = load float, ptr %4, align 4
  ret float %70
}

; Function Attrs: mustprogress uwtable
define internal noundef float @"_ZZN5faiss8kmeans1dEPKfmmPfENK3$_0clEll"(ptr noundef nonnull align 8 dereferenceable(24) %0, i64 noundef %1, i64 noundef %2) #0 align 2 {
  %4 = alloca float, align 4
  %5 = alloca ptr, align 8
  %6 = alloca i64, align 8
  %7 = alloca i64, align 8
  %8 = alloca i64, align 8
  %9 = alloca i64, align 8
  store ptr %0, ptr %5, align 8
  store i64 %1, ptr %6, align 8
  store i64 %2, ptr %7, align 8
  %10 = load ptr, ptr %5, align 8
  %11 = load i64, ptr %7, align 8
  %12 = icmp eq i64 %11, 0
  br i1 %12, label %13, label %19

13:                                               ; preds = %3
  %14 = getelementptr inbounds %class.anon.29, ptr %10, i32 0, i32 1
  %15 = load ptr, ptr %14, align 8
  %16 = load i64, ptr %7, align 8
  %17 = load i64, ptr %6, align 8
  %18 = call noundef float @_ZN5faiss12_GLOBAL__N_114CostCalculatorclEll(ptr noundef nonnull align 8 dereferenceable(48) %15, i64 noundef %16, i64 noundef %17)
  store float %18, ptr %4, align 4
  br label %39

19:                                               ; preds = %3
  %20 = load i64, ptr %7, align 8
  %21 = sub nsw i64 %20, 1
  store i64 %21, ptr %9, align 8
  %22 = call noundef nonnull align 8 dereferenceable(8) ptr @_ZSt3minIlERKT_S2_S2_(ptr noundef nonnull align 8 dereferenceable(8) %6, ptr noundef nonnull align 8 dereferenceable(8) %9)
  %23 = load i64, ptr %22, align 8
  store i64 %23, ptr %8, align 8
  %24 = getelementptr inbounds %class.anon.29, ptr %10, i32 0, i32 0
  %25 = load ptr, ptr %24, align 8
  %26 = getelementptr inbounds %class.anon.29, ptr %10, i32 0, i32 2
  %27 = load ptr, ptr %26, align 8
  %28 = load i64, ptr %27, align 8
  %29 = sub nsw i64 %28, 1
  %30 = load i64, ptr %8, align 8
  %31 = call noundef nonnull align 4 dereferenceable(4) ptr @_ZN5faiss12_GLOBAL__N_16MatrixIfE2atEll(ptr noundef nonnull align 8 dereferenceable(40) %25, i64 noundef %29, i64 noundef %30)
  %32 = load float, ptr %31, align 4
  %33 = getelementptr inbounds %class.anon.29, ptr %10, i32 0, i32 1
  %34 = load ptr, ptr %33, align 8
  %35 = load i64, ptr %7, align 8
  %36 = load i64, ptr %6, align 8
  %37 = call noundef float @_ZN5faiss12_GLOBAL__N_114CostCalculatorclEll(ptr noundef nonnull align 8 dereferenceable(48) %34, i64 noundef %35, i64 noundef %36)
  %38 = fadd float %32, %37
  store float %38, ptr %4, align 4
  br label %39

39:                                               ; preds = %19, %13
  %40 = load float, ptr %4, align 4
  ret float %40
}

; Function Attrs: mustprogress nounwind uwtable
define linkonce_odr noundef ptr @_ZNKSt9_Any_data9_M_accessEv(ptr noundef nonnull align 8 dereferenceable(16) %0) #1 comdat align 2 {
  %2 = alloca ptr, align 8
  store ptr %0, ptr %2, align 8
  %3 = load ptr, ptr %2, align 8
  %4 = getelementptr inbounds [16 x i8], ptr %3, i64 0, i64 0
  ret ptr %4
}

; Function Attrs: mustprogress uwtable
define internal noundef float @"_ZSt13__invoke_implIfRZN5faiss8kmeans1dEPKfmmPfE3$_0JllEET_St14__invoke_otherOT0_DpOT1_"(ptr noundef nonnull align 8 dereferenceable(24) %0, ptr noundef nonnull align 8 dereferenceable(8) %1, ptr noundef nonnull align 8 dereferenceable(8) %2) #0 {
  %4 = alloca ptr, align 8
  %5 = alloca ptr, align 8
  %6 = alloca ptr, align 8
  store ptr %0, ptr %4, align 8
  store ptr %1, ptr %5, align 8
  store ptr %2, ptr %6, align 8
  %7 = load ptr, ptr %4, align 8
  %8 = load ptr, ptr %5, align 8
  %9 = load i64, ptr %8, align 8
  %10 = load ptr, ptr %6, align 8
  %11 = load i64, ptr %10, align 8
  %12 = call noundef float @"_ZZN5faiss8kmeans1dEPKfmmPfENK3$_0clEll"(ptr noundef nonnull align 8 dereferenceable(24) %7, i64 noundef %9, i64 noundef %11)
  ret float %12
}

; Function Attrs: mustprogress nounwind uwtable
define internal noundef nonnull align 8 dereferenceable(8) ptr @"_ZNKSt9_Any_data9_M_accessIPZN5faiss8kmeans1dEPKfmmPfE3$_0EERKT_v"(ptr noundef nonnull align 8 dereferenceable(16) %0) #1 align 2 {
  %2 = alloca ptr, align 8
  store ptr %0, ptr %2, align 8
  %3 = load ptr, ptr %2, align 8
  %4 = call noundef ptr @_ZNKSt9_Any_data9_M_accessEv(ptr noundef nonnull align 8 dereferenceable(16) %3) #12
  ret ptr %4
}

; Function Attrs: mustprogress uwtable
define internal noundef float @"_ZSt10__invoke_rIfRZN5faiss8kmeans1dEPKfmmPfE3$_0JllEENSt9enable_ifIX16is_invocable_r_vIT_T0_DpT1_EES7_E4typeEOS8_DpOS9_"(ptr noundef nonnull align 8 dereferenceable(24) %0, ptr noundef nonnull align 8 dereferenceable(8) %1, ptr noundef nonnull align 8 dereferenceable(8) %2) #0 {
  %4 = alloca ptr, align 8
  %5 = alloca ptr, align 8
  %6 = alloca ptr, align 8
  store ptr %0, ptr %4, align 8
  store ptr %1, ptr %5, align 8
  store ptr %2, ptr %6, align 8
  %7 = load ptr, ptr %4, align 8
  %8 = load ptr, ptr %5, align 8
  %9 = load ptr, ptr %6, align 8
  %10 = call noundef float @"_ZSt13__invoke_implIfRZN5faiss8kmeans1dEPKfmmPfE3$_0JllEET_St14__invoke_otherOT0_DpOT1_"(ptr noundef nonnull align 8 dereferenceable(24) %7, ptr noundef nonnull align 8 dereferenceable(8) %8, ptr noundef nonnull align 8 dereferenceable(8) %9)
  ret float %10
}

; Function Attrs: mustprogress nounwind uwtable
define internal noundef ptr @"_ZNSt14_Function_base13_Base_managerIZN5faiss8kmeans1dEPKfmmPfE3$_0E14_M_get_pointerERKSt9_Any_data"(ptr noundef nonnull align 8 dereferenceable(16) %0) #1 align 2 {
  %2 = alloca ptr, align 8
  store ptr %0, ptr %2, align 8
  %3 = load ptr, ptr %2, align 8
  %4 = call noundef nonnull align 8 dereferenceable(8) ptr @"_ZNKSt9_Any_data9_M_accessIPZN5faiss8kmeans1dEPKfmmPfE3$_0EERKT_v"(ptr noundef nonnull align 8 dereferenceable(16) %3) #12
  %5 = load ptr, ptr %4, align 8
  ret ptr %5
}

; Function Attrs: mustprogress uwtable
define internal noundef float @"_ZNSt17_Function_handlerIFfllEZN5faiss8kmeans1dEPKfmmPfE3$_0E9_M_invokeERKSt9_Any_dataOlSA_"(ptr noundef nonnull align 8 dereferenceable(16) %0, ptr noundef nonnull align 8 dereferenceable(8) %1, ptr noundef nonnull align 8 dereferenceable(8) %2) #0 align 2 {
  %4 = alloca ptr, align 8
  %5 = alloca ptr, align 8
  %6 = alloca ptr, align 8
  store ptr %0, ptr %4, align 8
  store ptr %1, ptr %5, align 8
  store ptr %2, ptr %6, align 8
  %7 = load ptr, ptr %4, align 8
  %8 = call noundef ptr @"_ZNSt14_Function_base13_Base_managerIZN5faiss8kmeans1dEPKfmmPfE3$_0E14_M_get_pointerERKSt9_Any_data"(ptr noundef nonnull align 8 dereferenceable(16) %7) #12
  %9 = load ptr, ptr %5, align 8
  %10 = load ptr, ptr %6, align 8
  %11 = call noundef float @"_ZSt10__invoke_rIfRZN5faiss8kmeans1dEPKfmmPfE3$_0JllEENSt9enable_ifIX16is_invocable_r_vIT_T0_DpT1_EES7_E4typeEOS8_DpOS9_"(ptr noundef nonnull align 8 dereferenceable(24) %8, ptr noundef nonnull align 8 dereferenceable(8) %9, ptr noundef nonnull align 8 dereferenceable(8) %10)
  ret float %11
}