; Function Attrs: mustprogress nofree norecurse nosync nounwind willreturn memory(read, inaccessiblemem: none) uwtable
define internal noundef float @"_ZNSt17_Function_handlerIFfllEZN5faiss8kmeans1dEPKfmmPfE3$_0E9_M_invokeERKSt9_Any_dataOlSA_"(ptr nocapture noundef nonnull readonly align 8 dereferenceable(16) %0, ptr nocapture noundef nonnull readonly align 8 dereferenceable(8) %1, ptr nocapture noundef nonnull readonly align 8 dereferenceable(8) %2) #9 align 2 {
  %.val = load ptr, ptr %0, align 8
  %.val3 = load i64, ptr %1, align 8
  %.val4 = load i64, ptr %2, align 8
  %4 = icmp eq i64 %.val4, 0
  br i1 %4, label %5, label %27

5:                                                ; preds = %3
  %6 = icmp slt i64 %.val3, 0
  br i1 %6, label %"_ZSt10__invoke_rIfRZN5faiss8kmeans1dEPKfmmPfE3$_0JllEENSt9enable_ifIX16is_invocable_r_vIT_T0_DpT1_EES7_E4typeEOS8_DpOS9_.exit", label %7

7:                                                ; preds = %5
  %8 = getelementptr inbounds i8, ptr %.val, i64 8
  %9 = load ptr, ptr %8, align 8
  %10 = getelementptr i8, ptr %9, i64 24
  %.val9.i.i.i = load ptr, ptr %10, align 8
  %.val8.i.i.i = load ptr, ptr %9, align 8
  %11 = add nuw nsw i64 %.val3, 1
  %12 = getelementptr inbounds double, ptr %.val8.i.i.i, i64 %11
  %13 = load double, ptr %12, align 8
  %14 = load double, ptr %.val8.i.i.i, align 8
  %15 = fsub double %13, %14
  %16 = sitofp i64 %11 to double
  %17 = fdiv double %15, %16
  %18 = getelementptr inbounds double, ptr %.val9.i.i.i, i64 %11
  %19 = load double, ptr %18, align 8
  %20 = load double, ptr %.val9.i.i.i, align 8
  %21 = fsub double %19, %20
  %22 = fmul double %17, %17
  %23 = tail call double @llvm.fmuladd.f64(double %16, double %22, double %21)
  %24 = fmul double %17, -2.000000e+00
  %25 = tail call double @llvm.fmuladd.f64(double %24, double %15, double %23)
  %26 = fptrunc double %25 to float
  br label %"_ZSt10__invoke_rIfRZN5faiss8kmeans1dEPKfmmPfE3$_0JllEENSt9enable_ifIX16is_invocable_r_vIT_T0_DpT1_EES7_E4typeEOS8_DpOS9_.exit"

27:                                               ; preds = %3
  %28 = add nsw i64 %.val4, -1
  %.sroa.speculated.i.i.i = tail call i64 @llvm.smin.i64(i64 %28, i64 %.val3)
  %29 = load ptr, ptr %.val, align 8
  %30 = getelementptr inbounds i8, ptr %.val, i64 16
  %31 = load ptr, ptr %30, align 8
  %32 = load i64, ptr %31, align 8
  %33 = add nsw i64 %32, -1
  %.val10.i.i.i = load ptr, ptr %29, align 8
  %34 = getelementptr i8, ptr %29, i64 32
  %.val11.i.i.i = load i64, ptr %34, align 8
  %35 = mul nsw i64 %.val11.i.i.i, %33
  %36 = getelementptr float, ptr %.val10.i.i.i, i64 %35
  %37 = getelementptr float, ptr %36, i64 %.sroa.speculated.i.i.i
  %38 = load float, ptr %37, align 4
  %39 = icmp slt i64 %.val3, %.val4
  br i1 %39, label %_ZN5faiss12_GLOBAL__N_114CostCalculatorclEll.exit13.i.i.i, label %40

40:                                               ; preds = %27
  %41 = getelementptr inbounds i8, ptr %.val, i64 8
  %42 = load ptr, ptr %41, align 8
  %43 = getelementptr i8, ptr %42, i64 24
  %.val7.i.i.i = load ptr, ptr %43, align 8
  %.val.i.i.i = load ptr, ptr %42, align 8
  %44 = add i64 %.val3, 1
  %45 = getelementptr inbounds double, ptr %.val.i.i.i, i64 %44
  %46 = load double, ptr %45, align 8
  %47 = getelementptr inbounds double, ptr %.val.i.i.i, i64 %.val4
  %48 = load double, ptr %47, align 8
  %49 = fsub double %46, %48
  %50 = sub i64 %44, %.val4
  %51 = sitofp i64 %50 to double
  %52 = fdiv double %49, %51
  %53 = getelementptr inbounds double, ptr %.val7.i.i.i, i64 %44
  %54 = load double, ptr %53, align 8
  %55 = getelementptr inbounds double, ptr %.val7.i.i.i, i64 %.val4
  %56 = load double, ptr %55, align 8
  %57 = fsub double %54, %56
  %58 = fmul double %52, %52
  %59 = tail call double @llvm.fmuladd.f64(double %51, double %58, double %57)
  %60 = fmul double %52, -2.000000e+00
  %61 = tail call double @llvm.fmuladd.f64(double %60, double %49, double %59)
  %62 = fptrunc double %61 to float
  br label %_ZN5faiss12_GLOBAL__N_114CostCalculatorclEll.exit13.i.i.i

_ZN5faiss12_GLOBAL__N_114CostCalculatorclEll.exit13.i.i.i: ; preds = %40, %27
  %.0.i12.i.i.i = phi float [ %62, %40 ], [ 0.000000e+00, %27 ]
  %63 = fadd float %38, %.0.i12.i.i.i
  br label %"_ZSt10__invoke_rIfRZN5faiss8kmeans1dEPKfmmPfE3$_0JllEENSt9enable_ifIX16is_invocable_r_vIT_T0_DpT1_EES7_E4typeEOS8_DpOS9_.exit"

"_ZSt10__invoke_rIfRZN5faiss8kmeans1dEPKfmmPfE3$_0JllEENSt9enable_ifIX16is_invocable_r_vIT_T0_DpT1_EES7_E4typeEOS8_DpOS9_.exit": ; preds = %5, %7, %_ZN5faiss12_GLOBAL__N_114CostCalculatorclEll.exit13.i.i.i
  %.0.i.i.i = phi float [ %63, %_ZN5faiss12_GLOBAL__N_114CostCalculatorclEll.exit13.i.i.i ], [ %26, %7 ], [ 0.000000e+00, %5 ]
  ret float %.0.i.i.i
}